target datalayout = "e-m:e-p270:32:32-p271:32:32-p272:64:64-i64:64-i128:128-f80:128-n8:16:32:64-S128"
target triple = "x86_64-pc-linux-gnu"

%struct.ARKodeMemRec = type { ptr, double, ptr, i32, i32, double, double, ptr, i32, double, ptr, i32, i32, ptr, ptr, i32, ptr, ptr, i32, ptr, ptr, ptr, ptr, ptr, ptr, ptr, ptr, ptr, ptr, ptr, ptr, ptr, ptr, ptr, i32, ptr, ptr, i32, ptr, i32, ptr, ptr, ptr, ptr, ptr, ptr, ptr, ptr, ptr, ptr, ptr, ptr, ptr, ptr, ptr, ptr, ptr, ptr, ptr, ptr, ptr, ptr, ptr, ptr, ptr, ptr, i32, ptr, ptr, ptr, ptr, ptr, ptr, ptr, i32, ptr, ptr, ptr, i32, ptr, ptr, ptr, ptr, ptr, ptr, ptr, i32, i32, i32, i32, double, double, double, double, double, double, double, double, double, double, i32, ptr, i64, i32, i32, i32, i32, i64, i64, i32, i64, i64, i64, i64, i64, i64, i64, double, double, double, double, double, i32, double, double, i32, i32, i32, i32, i32, i32, i32, i32, ptr, i32, ptr, ptr, ptr, ptr, i32, i32, i32 }
%struct.ARKodeERKStepMemRec = type { ptr, ptr, i32, i32, i32, ptr, i64, ptr, ptr, i32, double, double, ptr, i32, ptr, ptr }
%struct.ARKodeButcherTableMem = type { i32, i32, i32, ptr, ptr, ptr, ptr }

@.str = private unnamed_addr constant [123 x i8] c"generated/home/dtcxzyw/WorkSpace/Projects/compilers/llvm-opt-benchmark/bench/sundials/sundials/src/arkode/arkode_erkstep.c\00", align 1
@.str.21 = private unnamed_addr constant [33 x i8] c"Time step module memory is NULL.\00", align 1
@__func__.erkStep_SetButcherTable = private unnamed_addr constant [24 x i8] c"erkStep_SetButcherTable\00", align 1
@.str.22 = private unnamed_addr constant [50 x i8] c"No explicit method at requested order, using q=9.\00", align 1

; Function Attrs: nounwind uwtable
define i32 @erkStep_SetButcherTable(ptr noundef %0) #0 {
  %2 = alloca i32, align 4
  %3 = alloca ptr, align 8
  %4 = alloca i32, align 4
  %5 = alloca ptr, align 8
  %6 = alloca i64, align 8
  %7 = alloca i64, align 8
  %8 = alloca i32, align 4
  store ptr %0, ptr %3, align 8, !tbaa !15
  call void @llvm.lifetime.start.p0(i64 4, ptr %4) #8
  call void @llvm.lifetime.start.p0(i64 8, ptr %5) #8
  call void @llvm.lifetime.start.p0(i64 8, ptr %6) #8
  call void @llvm.lifetime.start.p0(i64 8, ptr %7) #8
  %9 = load ptr, ptr %3, align 8, !tbaa !15
  %10 = getelementptr inbounds nuw %struct.ARKodeMemRec, ptr %9, i32 0, i32 19
  %11 = load ptr, ptr %10, align 8, !tbaa !41
  %12 = icmp eq ptr %11, null
  br i1 %12, label %13, label %15

13:                                               ; preds = %1
  %14 = load ptr, ptr %3, align 8, !tbaa !15
  call void (ptr, i32, i32, ptr, ptr, ptr, ...) @arkProcessError(ptr noundef %14, i32 noundef -21, i32 noundef 948, ptr noundef @__func__.erkStep_SetButcherTable, ptr noundef @.str, ptr noundef @.str.21)
  store i32 -21, ptr %2, align 4
  store i32 1, ptr %8, align 4
  br label %88

15:                                               ; preds = %1
  %16 = load ptr, ptr %3, align 8, !tbaa !15
  %17 = getelementptr inbounds nuw %struct.ARKodeMemRec, ptr %16, i32 0, i32 19
  %18 = load ptr, ptr %17, align 8, !tbaa !41
  store ptr %18, ptr %5, align 8, !tbaa !17
  %19 = load ptr, ptr %5, align 8, !tbaa !17
  %20 = getelementptr inbounds nuw %struct.ARKodeERKStepMemRec, ptr %19, i32 0, i32 5
  %21 = load ptr, ptr %20, align 8, !tbaa !70
  %22 = icmp ne ptr %21, null
  br i1 %22, label %23, label %24

23:                                               ; preds = %15
  store i32 0, ptr %2, align 4
  store i32 1, ptr %8, align 4
  br label %88

24:                                               ; preds = %15
  store i32 -1, ptr %4, align 4, !tbaa !13
  %25 = load ptr, ptr %5, align 8, !tbaa !17
  %26 = getelementptr inbounds nuw %struct.ARKodeERKStepMemRec, ptr %25, i32 0, i32 2
  %27 = load i32, ptr %26, align 8, !tbaa !78
  switch i32 %27, label %37 [
    i32 1, label %28
    i32 2, label %29
    i32 3, label %30
    i32 4, label %31
    i32 5, label %32
    i32 6, label %33
    i32 7, label %34
    i32 8, label %35
    i32 9, label %36
  ]

28:                                               ; preds = %24
  store i32 22, ptr %4, align 4, !tbaa !13
  br label %39

29:                                               ; preds = %24
  store i32 0, ptr %4, align 4, !tbaa !13
  br label %39

30:                                               ; preds = %24
  store i32 1, ptr %4, align 4, !tbaa !13
  br label %39

31:                                               ; preds = %24
  store i32 3, ptr %4, align 4, !tbaa !13
  br label %39

32:                                               ; preds = %24
  store i32 6, ptr %4, align 4, !tbaa !13
  br label %39

33:                                               ; preds = %24
  store i32 10, ptr %4, align 4, !tbaa !13
  br label %39

34:                                               ; preds = %24
  store i32 19, ptr %4, align 4, !tbaa !13
  br label %39

35:                                               ; preds = %24
  store i32 11, ptr %4, align 4, !tbaa !13
  br label %39

36:                                               ; preds = %24
  store i32 21, ptr %4, align 4, !tbaa !13
  br label %39

37:                                               ; preds = %24
  %38 = load ptr, ptr %3, align 8, !tbaa !15
  call void (ptr, i32, i32, ptr, ptr, ptr, ...) @arkProcessError(ptr noundef %38, i32 noundef 99, i32 noundef 973, ptr noundef @__func__.erkStep_SetButcherTable, ptr noundef @.str, ptr noundef @.str.22)
  store i32 21, ptr %4, align 4, !tbaa !13
  br label %39

39:                                               ; preds = %37, %36, %35, %34, %33, %32, %31, %30, %29, %28
  %40 = load i32, ptr %4, align 4, !tbaa !13
  %41 = icmp sgt i32 %40, -1
  br i1 %41, label %42, label %47

42:                                               ; preds = %39
  %43 = load i32, ptr %4, align 4, !tbaa !13
  %44 = call ptr @ARKodeButcherTable_LoadERK(i32 noundef %43)
  %45 = load ptr, ptr %5, align 8, !tbaa !17
  %46 = getelementptr inbounds nuw %struct.ARKodeERKStepMemRec, ptr %45, i32 0, i32 5
  store ptr %44, ptr %46, align 8, !tbaa !70
  br label %47

47:                                               ; preds = %42, %39
  %48 = load ptr, ptr %5, align 8, !tbaa !17
  %49 = getelementptr inbounds nuw %struct.ARKodeERKStepMemRec, ptr %48, i32 0, i32 5
  %50 = load ptr, ptr %49, align 8, !tbaa !70
  call void @ARKodeButcherTable_Space(ptr noundef %50, ptr noundef %6, ptr noundef %7)
  %51 = load i64, ptr %6, align 8, !tbaa !106
  %52 = load ptr, ptr %3, align 8, !tbaa !15
  %53 = getelementptr inbounds nuw %struct.ARKodeMemRec, ptr %52, i32 0, i32 116
  %54 = load i64, ptr %53, align 8, !tbaa !47
  %55 = add nsw i64 %54, %51
  store i64 %55, ptr %53, align 8, !tbaa !47
  %56 = load i64, ptr %7, align 8, !tbaa !106
  %57 = load ptr, ptr %3, align 8, !tbaa !15
  %58 = getelementptr inbounds nuw %struct.ARKodeMemRec, ptr %57, i32 0, i32 115
  %59 = load i64, ptr %58, align 8, !tbaa !48
  %60 = add nsw i64 %59, %56
  store i64 %60, ptr %58, align 8, !tbaa !48
  %61 = load ptr, ptr %5, align 8, !tbaa !17
  %62 = getelementptr inbounds nuw %struct.ARKodeERKStepMemRec, ptr %61, i32 0, i32 5
  %63 = load ptr, ptr %62, align 8, !tbaa !70
  %64 = icmp ne ptr %63, null
  br i1 %64, label %65, label %87

65:                                               ; preds = %47
  %66 = load ptr, ptr %5, align 8, !tbaa !17
  %67 = getelementptr inbounds nuw %struct.ARKodeERKStepMemRec, ptr %66, i32 0, i32 5
  %68 = load ptr, ptr %67, align 8, !tbaa !70
  %69 = getelementptr inbounds nuw %struct.ARKodeButcherTableMem, ptr %68, i32 0, i32 2
  %70 = load i32, ptr %69, align 8, !tbaa !121
  %71 = load ptr, ptr %5, align 8, !tbaa !17
  %72 = getelementptr inbounds nuw %struct.ARKodeERKStepMemRec, ptr %71, i32 0, i32 4
  store i32 %70, ptr %72, align 8, !tbaa !83
  %73 = load ptr, ptr %5, align 8, !tbaa !17
  %74 = getelementptr inbounds nuw %struct.ARKodeERKStepMemRec, ptr %73, i32 0, i32 5
  %75 = load ptr, ptr %74, align 8, !tbaa !70
  %76 = getelementptr inbounds nuw %struct.ARKodeButcherTableMem, ptr %75, i32 0, i32 0
  %77 = load i32, ptr %76, align 8, !tbaa !71
  %78 = load ptr, ptr %5, align 8, !tbaa !17
  %79 = getelementptr inbounds nuw %struct.ARKodeERKStepMemRec, ptr %78, i32 0, i32 2
  store i32 %77, ptr %79, align 8, !tbaa !78
  %80 = load ptr, ptr %5, align 8, !tbaa !17
  %81 = getelementptr inbounds nuw %struct.ARKodeERKStepMemRec, ptr %80, i32 0, i32 5
  %82 = load ptr, ptr %81, align 8, !tbaa !70
  %83 = getelementptr inbounds nuw %struct.ARKodeButcherTableMem, ptr %82, i32 0, i32 1
  %84 = load i32, ptr %83, align 4, !tbaa !79
  %85 = load ptr, ptr %5, align 8, !tbaa !17
  %86 = getelementptr inbounds nuw %struct.ARKodeERKStepMemRec, ptr %85, i32 0, i32 3
  store i32 %84, ptr %86, align 4, !tbaa !81
  br label %87

87:                                               ; preds = %65, %47
  store i32 0, ptr %2, align 4
  store i32 1, ptr %8, align 4
  br label %88

88:                                               ; preds = %87, %23, %13
  call void @llvm.lifetime.end.p0(i64 8, ptr %7) #8
  call void @llvm.lifetime.end.p0(i64 8, ptr %6) #8
  call void @llvm.lifetime.end.p0(i64 8, ptr %5) #8
  call void @llvm.lifetime.end.p0(i64 4, ptr %4) #8
  %89 = load i32, ptr %2, align 4
  ret i32 %89
}