; Function Attrs: nounwind uwtable
define range(i32 -21, 1) i32 @erkStep_SetButcherTable(ptr noundef %0) local_unnamed_addr #0 {
  %2 = alloca i64, align 8
  %3 = alloca i64, align 8
  call void @llvm.lifetime.start.p0(i64 8, ptr nonnull %2) #12
  call void @llvm.lifetime.start.p0(i64 8, ptr nonnull %3) #12
  %4 = getelementptr inbounds nuw i8, ptr %0, i64 136
  %5 = load ptr, ptr %4, align 8, !tbaa !44
  %6 = icmp eq ptr %5, null
  br i1 %6, label %7, label %8

7:                                                ; preds = %1
  tail call void (ptr, i32, i32, ptr, ptr, ptr, ...) @arkProcessError(ptr noundef nonnull %0, i32 noundef -21, i32 noundef 948, ptr noundef nonnull @__func__.erkStep_SetButcherTable, ptr noundef nonnull @.str, ptr noundef nonnull @.str.21) #12
  br label %36

8:                                                ; preds = %1
  %9 = getelementptr inbounds nuw i8, ptr %5, i64 32
  %10 = load ptr, ptr %9, align 8, !tbaa !59
  %.not = icmp eq ptr %10, null
  br i1 %.not, label %11, label %36

11:                                               ; preds = %8
  %12 = getelementptr inbounds nuw i8, ptr %5, i64 16
  %13 = load i32, ptr %12, align 8, !tbaa !67
  %switch.tableidx = add i32 %13, -1
  %14 = icmp ult i32 %switch.tableidx, 9
  br i1 %14, label %switch.lookup, label %15

15:                                               ; preds = %11
  tail call void (ptr, i32, i32, ptr, ptr, ptr, ...) @arkProcessError(ptr noundef nonnull %0, i32 noundef 99, i32 noundef 973, ptr noundef nonnull @__func__.erkStep_SetButcherTable, ptr noundef nonnull @.str, ptr noundef nonnull @.str.22) #12
  br label %17

switch.lookup:                                    ; preds = %11
  %16 = zext nneg i32 %switch.tableidx to i64
  %switch.gep = getelementptr inbounds nuw [9 x i32], ptr @switch.table.erkStep_SetButcherTable, i64 0, i64 %16
  %switch.load = load i32, ptr %switch.gep, align 4
  br label %17

17:                                               ; preds = %switch.lookup, %15
  %.019 = phi i32 [ 21, %15 ], [ %switch.load, %switch.lookup ]
  %18 = tail call ptr @ARKodeButcherTable_LoadERK(i32 noundef %.019) #12
  store ptr %18, ptr %9, align 8, !tbaa !59
  call void @ARKodeButcherTable_Space(ptr noundef %18, ptr noundef nonnull %2, ptr noundef nonnull %3) #12
  %19 = load i64, ptr %2, align 8, !tbaa !101
  %20 = getelementptr inbounds nuw i8, ptr %0, i64 880
  %21 = load i64, ptr %20, align 8, !tbaa !50
  %22 = add nsw i64 %21, %19
  store i64 %22, ptr %20, align 8, !tbaa !50
  %23 = load i64, ptr %3, align 8, !tbaa !101
  %24 = getelementptr inbounds nuw i8, ptr %0, i64 872
  %25 = load i64, ptr %24, align 8, !tbaa !51
  %26 = add nsw i64 %25, %23
  store i64 %26, ptr %24, align 8, !tbaa !51
  %27 = load ptr, ptr %9, align 8, !tbaa !59
  %.not22 = icmp eq ptr %27, null
  br i1 %.not22, label %36, label %28

28:                                               ; preds = %17
  %29 = getelementptr inbounds nuw i8, ptr %27, i64 8
  %30 = load i32, ptr %29, align 8, !tbaa !108
  %31 = getelementptr inbounds nuw i8, ptr %5, i64 24
  store i32 %30, ptr %31, align 8, !tbaa !72
  %32 = load i32, ptr %27, align 8, !tbaa !60
  store i32 %32, ptr %12, align 8, !tbaa !67
  %33 = getelementptr inbounds nuw i8, ptr %27, i64 4
  %34 = load i32, ptr %33, align 4, !tbaa !68
  %35 = getelementptr inbounds nuw i8, ptr %5, i64 20
  store i32 %34, ptr %35, align 4, !tbaa !70
  br label %36

36:                                               ; preds = %17, %28, %8, %7
  %.0 = phi i32 [ -21, %7 ], [ 0, %8 ], [ 0, %28 ], [ 0, %17 ]
  call void @llvm.lifetime.end.p0(i64 8, ptr nonnull %3) #12
  call void @llvm.lifetime.end.p0(i64 8, ptr nonnull %2) #12
  ret i32 %.0
}